(lp0
(imodels
FragmentExtension
p1
(dp2
S'x_start'
p3
I0
sS'num_indentity'
p4
I7
sS'x_end'
p5
I7
sS'y_end'
p6
I5
sS'score'
p7
I7
sS'y_start'
p8
I0
sba(imodels
FragmentExtension
p9
(dp10
g3
I100
sg4
I5
sg5
I109
sg6
I5
sg7
I5
sg8
I0
sba(imodels
FragmentExtension
p11
(dp12
g3
I390
sg4
I6
sg5
I398
sg6
I5
sg7
I5
sg8
I0
sba(imodels
FragmentExtension
p13
(dp14
g3
I2
sg4
I7
sg5
I8
sg6
I7
sg7
I7
sg8
I2
sba(imodels
FragmentExtension
p15
(dp16
g3
I830
sg4
I6
sg5
I837
sg6
I7
sg7
I6
sg8
I2
sba(imodels
FragmentExtension
p17
(dp18
g3
I1141
sg4
I5
sg5
I1150
sg6
I7
sg7
I5
sg8
I2
sba(imodels
FragmentExtension
p19
(dp20
g3
I1162
sg4
I5
sg5
I1171
sg6
I7
sg7
I5
sg8
I2
sba(imodels
FragmentExtension
p21
(dp22
g3
I1
sg4
I7
sg5
I7
sg6
I6
sg7
I7
sg8
I1
sba(imodels
FragmentExtension
p23
(dp24
g3
I101
sg4
I6
sg5
I109
sg6
I6
sg7
I6
sg8
I1
sba(imodels
FragmentExtension
p25
(dp26
g3
I365
sg4
I5
sg5
I374
sg6
I6
sg7
I5
sg8
I1
sba(imodels
FragmentExtension
p27
(dp28
g3
I791
sg4
I5
sg5
I800
sg6
I6
sg7
I5
sg8
I1
sba(imodels
FragmentExtension
p29
(dp30
g3
I828
sg4
I5
sg5
I837
sg6
I6
sg7
I5
sg8
I1
sba(imodels
FragmentExtension
p31
(dp32
g3
I3
sg4
I8
sg5
I9
sg6
I8
sg7
I8
sg8
I3
sba(imodels
FragmentExtension
p33
(dp34
g3
I155
sg4
I6
sg5
I165
sg6
I8
sg7
I5
sg8
I3
sba(imodels
FragmentExtension
p35
(dp36
g3
I1084
sg4
I5
sg5
I1094
sg6
I8
sg7
I5
sg8
I3
sba(imodels
FragmentExtension
p37
(dp38
g3
I1144
sg4
I6
sg5
I1151
sg6
I8
sg7
I6
sg8
I3
sba.