(lp0
(imodels
Hit
p1
(dp2
S'position_2'
p3
I0
sS'k_hash'
p4
I75
sS'position_1'
p5
I0
sba(imodels
Hit
p6
(dp7
g3
I0
sg4
I75
sg5
I101
sba(imodels
Hit
p8
(dp9
g3
I0
sg4
I75
sg5
I391
sba(imodels
Hit
p10
(dp11
g3
I2
sg4
I177
sg5
I2
sba(imodels
Hit
p12
(dp13
g3
I2
sg4
I177
sg5
I831
sba(imodels
Hit
p14
(dp15
g3
I2
sg4
I177
sg5
I1144
sba(imodels
Hit
p16
(dp17
g3
I2
sg4
I177
sg5
I1165
sba(imodels
Hit
p18
(dp19
g3
I1
sg4
I300
sg5
I1
sba(imodels
Hit
p20
(dp21
g3
I1
sg4
I300
sg5
I102
sba(imodels
Hit
p22
(dp23
g3
I1
sg4
I300
sg5
I367
sba(imodels
Hit
p24
(dp25
g3
I1
sg4
I300
sg5
I793
sba(imodels
Hit
p26
(dp27
g3
I1
sg4
I300
sg5
I830
sba(imodels
Hit
p28
(dp29
g3
I3
sg4
I710
sg5
I3
sba(imodels
Hit
p30
(dp31
g3
I3
sg4
I710
sg5
I159
sba(imodels
Hit
p32
(dp33
g3
I3
sg4
I710
sg5
I1088
sba(imodels
Hit
p34
(dp35
g3
I3
sg4
I710
sg5
I1145
sba.