(lp0
(imodels
Kmer
p1
(dp2
S'position'
p3
(lp4
I0
asS'k_hash'
p5
I75
sba(imodels
Kmer
p6
(dp7
g3
(lp8
I2
asg5
I177
sba(imodels
Kmer
p9
(dp10
g3
(lp11
I1
asg5
I300
sba(imodels
Kmer
p12
(dp13
g3
(lp14
I3
asg5
I710
sba.