(lp0
(imodels
Kmer
p1
(dp2
S'position'
p3
(lp4
I822
asS'k_hash'
p5
I0
sba(imodels
Kmer
p6
(dp7
g3
(lp8
I823
aI838
asg5
I1
sba(imodels
Kmer
p9
(dp10
g3
(lp11
I900
asg5
I3
sba(imodels
Kmer
p12
(dp13
g3
(lp14
I824
aI884
asg5
I4
sba(imodels
Kmer
p15
(dp16
g3
(lp17
I839
aI1093
asg5
I5
sba(imodels
Kmer
p18
(dp19
g3
(lp20
I512
asg5
I6
sba(imodels
Kmer
p21
(dp22
g3
(lp23
I910
asg5
I8
sba(imodels
Kmer
p24
(dp25
g3
(lp26
I585
aI994
asg5
I10
sba(imodels
Kmer
p27
(dp28
g3
(lp29
I222
asg5
I12
sba(imodels
Kmer
p30
(dp31
g3
(lp32
I408
asg5
I13
sba(imodels
Kmer
p33
(dp34
g3
(lp35
I501
aI565
asg5
I14
sba(imodels
Kmer
p36
(dp37
g3
(lp38
I518
aI752
aI901
asg5
I15
sba(imodels
Kmer
p39
(dp40
g3
(lp41
I276
aI885
aI941
aI1119
asg5
I16
sba(imodels
Kmer
p42
(dp43
g3
(lp44
I96
aI825
asg5
I17
sba(imodels
Kmer
p45
(dp46
g3
(lp47
I390
asg5
I18
sba(imodels
Kmer
p48
(dp49
g3
(lp50
I840
aI1094
asg5
I20
sba(imodels
Kmer
p51
(dp52
g3
(lp53
I669
asg5
I22
sba(imodels
Kmer
p54
(dp55
g3
(lp56
I944
asg5
I24
sba(imodels
Kmer
p57
(dp58
g3
(lp59
I1078
asg5
I25
sba(imodels
Kmer
p60
(dp61
g3
(lp62
I371
aI385
aI513
asg5
I27
sba(imodels
Kmer
p63
(dp64
g3
(lp65
I897
aI911
asg5
I32
sba(imodels
Kmer
p66
(dp67
g3
(lp68
I235
asg5
I35
sba(imodels
Kmer
p69
(dp70
g3
(lp71
I703
asg5
I36
sba(imodels
Kmer
p72
(dp73
g3
(lp74
I355
asg5
I37
sba(imodels
Kmer
p75
(dp76
g3
(lp77
I580
asg5
I38
sba(imodels
Kmer
p78
(dp79
g3
(lp80
I561
aI626
aI644
aI914
asg5
I40
sba(imodels
Kmer
p81
(dp82
g3
(lp83
I586
aI651
asg5
I41
sba(imodels
Kmer
p84
(dp85
g3
(lp86
I688
aI995
asg5
I43
sba(imodels
Kmer
p87
(dp88
g3
(lp89
I1164
asg5
I44
sba(imodels
Kmer
p90
(dp91
g3
(lp92
I223
asg5
I48
sba(imodels
Kmer
p93
(dp94
g3
(lp95
I327
aI344
asg5
I49
sba(imodels
Kmer
p96
(dp97
g3
(lp98
I935
aI1122
asg5
I50
sba(imodels
Kmer
p99
(dp100
g3
(lp101
I766
asg5
I51
sba(imodels
Kmer
p102
(dp103
g3
(lp104
I866
aI1026
asg5
I53
sba(imodels
Kmer
p105
(dp106
g3
(lp107
I409
aI1045
asg5
I54
sba(imodels
Kmer
p108
(dp109
g3
(lp110
I82
asg5
I55
sba(imodels
Kmer
p111
(dp112
g3
(lp113
I502
asg5
I56
sba(imodels
Kmer
p114
(dp115
g3
(lp116
I601
asg5
I58
sba(imodels
Kmer
p117
(dp118
g3
(lp119
I279
aI566
aI888
asg5
I59
sba(imodels
Kmer
p120
(dp121
g3
(lp122
I231
aI818
asg5
I60
sba(imodels
Kmer
p123
(dp124
g3
(lp125
I226
aI519
aI789
asg5
I61
sba(imodels
Kmer
p126
(dp127
g3
(lp128
I753
asg5
I62
sba(imodels
Kmer
p129
(dp130
g3
(lp131
I902
asg5
I63
sba(imodels
Kmer
p132
(dp133
g3
(lp134
I499
asg5
I64
sba(imodels
Kmer
p135
(dp136
g3
(lp137
I942
asg5
I65
sba(imodels
Kmer
p138
(dp139
g3
(lp140
I277
aI886
aI1120
asg5
I67
sba(imodels
Kmer
p141
(dp142
g3
(lp143
I97
aI99
asg5
I68
sba(imodels
Kmer
p144
(dp145
g3
(lp146
I256
aI826
asg5
I69
sba(imodels
Kmer
p147
(dp148
g3
(lp149
I719
aI987
asg5
I70
sba(imodels
Kmer
p150
(dp151
g3
(lp152
I335
aI709
asg5
I71
sba(imodels
Kmer
p153
(dp154
g3
(lp155
I1068
asg5
I73
sba(imodels
Kmer
p156
(dp157
g3
(lp158
I1012
asg5
I74
sba(imodels
Kmer
p159
(dp160
g3
(lp161
I0
aI101
aI391
asg5
I75
sba(imodels
Kmer
p162
(dp163
g3
(lp164
I1084
asg5
I78
sba(imodels
Kmer
p165
(dp166
g3
(lp167
I875
asg5
I79
sba(imodels
Kmer
p168
(dp169
g3
(lp170
I577
asg5
I80
sba(imodels
Kmer
p171
(dp172
g3
(lp173
I183
aI828
aI841
asg5
I82
sba(imodels
Kmer
p174
(dp175
g3
(lp176
I1095
asg5
I83
sba(imodels
Kmer
p177
(dp178
g3
(lp179
I834
asg5
I84
sba(imodels
Kmer
p180
(dp181
g3
(lp182
I1040
asg5
I85
sba(imodels
Kmer
p183
(dp184
g3
(lp185
I262
asg5
I86
sba(imodels
Kmer
p186
(dp187
g3
(lp188
I657
asg5
I87
sba(imodels
Kmer
p189
(dp190
g3
(lp191
I318
aI330
asg5
I89
sba(imodels
Kmer
p192
(dp193
g3
(lp194
I269
aI632
asg5
I90
sba(imodels
Kmer
p195
(dp196
g3
(lp197
I670
aI1053
asg5
I91
sba(imodels
Kmer
p198
(dp199
g3
(lp200
I258
asg5
I92
sba(imodels
Kmer
p201
(dp202
g3
(lp203
I957
asg5
I95
sba(imodels
Kmer
p204
(dp205
g3
(lp206
I648
aI1090
asg5
I96
sba(imodels
Kmer
p207
(dp208
g3
(lp209
I5
aI147
aI296
aI741
asg5
I97
sba(imodels
Kmer
p210
(dp211
g3
(lp212
I347
asg5
I98
sba(imodels
Kmer
p213
(dp214
g3
(lp215
I150
aI161
aI945
asg5
I99
sba(imodels
Kmer
p216
(dp217
g3
(lp218
I364
asg5
I100
sba(imodels
Kmer
p219
(dp220
g3
(lp221
I440
aI976
aI1079
asg5
I103
sba(imodels
Kmer
p222
(dp223
g3
(lp224
I597
asg5
I104
sba(imodels
Kmer
p225
(dp226
g3
(lp227
I989
asg5
I105
sba(imodels
Kmer
p228
(dp229
g3
(lp230
I918
asg5
I106
sba(imodels
Kmer
p231
(dp232
g3
(lp233
I721
asg5
I107
sba(imodels
Kmer
p234
(dp235
g3
(lp236
I386
aI514
aI1128
aI1147
asg5
I108
sba(imodels
Kmer
p237
(dp238
g3
(lp239
I857
asg5
I109
sba(imodels
Kmer
p240
(dp241
g3
(lp242
I241
aI372
aI610
asg5
I111
sba(imodels
Kmer
p243
(dp244
g3
(lp245
I932
asg5
I112
sba(imodels
Kmer
p246
(dp247
g3
(lp248
I744
aI1111
asg5
I114
sba(imodels
Kmer
p249
(dp250
g3
(lp251
I696
asg5
I116
sba(imodels
Kmer
p252
(dp253
g3
(lp254
I8
aI88
aI119
aI129
aI143
aI711
asg5
I120
sba(imodels
Kmer
p255
(dp256
g3
(lp257
I615
asg5
I121
sba(imodels
Kmer
p258
(dp259
g3
(lp260
I303
aI337
asg5
I122
sba(imodels
Kmer
p261
(dp262
g3
(lp263
I251
aI415
asg5
I123
sba(imodels
Kmer
p264
(dp265
g3
(lp266
I299
asg5
I124
sba(imodels
Kmer
p267
(dp268
g3
(lp269
I677
asg5
I125
sba(imodels
Kmer
p270
(dp271
g3
(lp272
I898
asg5
I128
sba(imodels
Kmer
p273
(dp274
g3
(lp275
I912
asg5
I130
sba(imodels
Kmer
p276
(dp277
g3
(lp278
I787
asg5
I131
sba(imodels
Kmer
p279
(dp280
g3
(lp281
I707
aI717
asg5
I132
sba(imodels
Kmer
p282
(dp283
g3
(lp284
I630
asg5
I133
sba(imodels
Kmer
p285
(dp286
g3
(lp287
I397
asg5
I138
sba(imodels
Kmer
p288
(dp289
g3
(lp290
I556
aI731
asg5
I141
sba(imodels
Kmer
p291
(dp292
g3
(lp293
I236
asg5
I143
sba(imodels
Kmer
p294
(dp295
g3
(lp296
I509
aI938
asg5
I144
sba(imodels
Kmer
p297
(dp298
g3
(lp299
I506
aI704
aI728
asg5
I146
sba(imodels
Kmer
p300
(dp301
g3
(lp302
I37
aI445
aI460
aI1019
asg5
I147
sba(imodels
Kmer
p303
(dp304
g3
(lp305
I356
aI640
asg5
I148
sba(imodels
Kmer
p306
(dp307
g3
(lp308
I1070
asg5
I149
sba(imodels
Kmer
p309
(dp310
g3
(lp311
I1132
aI1151
asg5
I151
sba(imodels
Kmer
p312
(dp313
g3
(lp314
I581
asg5
I152
sba(imodels
Kmer
p315
(dp316
g3
(lp317
I156
asg5
I155
sba(imodels
Kmer
p318
(dp319
g3
(lp320
I33
aI106
aI133
aI381
asg5
I156
sba(imodels
Kmer
p321
(dp322
g3
(lp323
I562
aI700
asg5
I160
sba(imodels
Kmer
p324
(dp325
g3
(lp326
I645
aI915
aI1125
asg5
I161
sba(imodels
Kmer
p327
(dp328
g3
(lp329
I204
aI627
asg5
I162
sba(imodels
Kmer
p330
(dp331
g3
(lp332
I217
asg5
I163
sba(imodels
Kmer
p333
(dp334
g3
(lp335
I587
aI1114
asg5
I165
sba(imodels
Kmer
p336
(dp337
g3
(lp338
I652
aI844
aI1033
asg5
I166
sba(imodels
Kmer
p339
(dp340
g3
(lp341
I399
aI455
aI1014
asg5
I167
sba(imodels
Kmer
p342
(dp343
g3
(lp344
I207
aI479
asg5
I170
sba(imodels
Kmer
p345
(dp346
g3
(lp347
I115
aI451
aI689
asg5
I172
sba(imodels
Kmer
p348
(dp349
g3
(lp350
I350
aI747
asg5
I173
sba(imodels
Kmer
p351
(dp352
g3
(lp353
I996
asg5
I174
sba(imodels
Kmer
p354
(dp355
g3
(lp356
I662
asg5
I175
sba(imodels
Kmer
p357
(dp358
g3
(lp359
I368
asg5
I176
sba(imodels
Kmer
p360
(dp361
g3
(lp362
I2
aI831
aI1144
aI1165
asg5
I177
sba(imodels
Kmer
p363
(dp364
g3
(lp365
I103
asg5
I178
sba(imodels
Kmer
p366
(dp367
g3
(lp368
I794
asg5
I179
sba(imodels
Kmer
p369
(dp370
g3
(lp371
I360
asg5
I180
sba(imodels
Kmer
p372
(dp373
g3
(lp374
I813
asg5
I182
sba(imodels
Kmer
p375
(dp376
g3
(lp377
I110
aI123
asg5
I183
sba(imodels
Kmer
p378
(dp379
g3
(lp380
I799
asg5
I185
sba(imodels
Kmer
p381
(dp382
g3
(lp383
I758
asg5
I186
sba(imodels
Kmer
p384
(dp385
g3
(lp386
I186
asg5
I187
sba(imodels
Kmer
p387
(dp388
g3
(lp389
I393
aI1140
asg5
I188
sba(imodels
Kmer
p390
(dp391
g3
(lp392
I220
asg5
I192
sba(imodels
Kmer
p393
(dp394
g3
(lp395
I624
aI1162
asg5
I194
sba(imodels
Kmer
p396
(dp397
g3
(lp398
I80
aI224
aI1024
asg5
I195
sba(imodels
Kmer
p399
(dp400
g3
(lp401
I328
asg5
I197
sba(imodels
Kmer
p402
(dp403
g3
(lp404
I345
asg5
I198
sba(imodels
Kmer
p405
(dp406
g3
(lp407
I715
asg5
I200
sba(imodels
Kmer
p408
(dp409
g3
(lp410
I31
aI936
asg5
I201
sba(imodels
Kmer
p411
(dp412
g3
(lp413
I1123
asg5
I202
sba(imodels
Kmer
p414
(dp415
g3
(lp416
I797
asg5
I203
sba(imodels
Kmer
p417
(dp418
g3
(lp419
I22
aI29
aI1022
asg5
I204
sba(imodels
Kmer
p420
(dp421
g3
(lp422
I50
aI767
asg5
I205
sba(imodels
Kmer
p423
(dp424
g3
(lp425
I24
aI75
asg5
I207
sba(imodels
Kmer
p426
(dp427
g3
(lp428
I558
asg5
I208
sba(imodels
Kmer
p429
(dp430
g3
(lp431
I693
asg5
I209
sba(imodels
Kmer
p432
(dp433
g3
(lp434
I153
aI378
aI448
asg5
I210
sba(imodels
Kmer
p435
(dp436
g3
(lp437
I808
asg5
I214
sba(imodels
Kmer
p438
(dp439
g3
(lp440
I867
aI1027
asg5
I215
sba(imodels
Kmer
p441
(dp442
g3
(lp443
I52
aI56
aI60
aI64
aI68
aI92
aI164
asg5
I216
sba(imodels
Kmer
p444
(dp445
g3
(lp446
I40
aI410
aI925
asg5
I217
sba(imodels
Kmer
p447
(dp448
g3
(lp449
I769
aI948
asg5
I218
sba(imodels
Kmer
p450
(dp451
g3
(lp452
I168
aI178
aI733
aI1046
asg5
I219
sba(imodels
Kmer
p453
(dp454
g3
(lp455
I200
asg5
I220
sba(imodels
Kmer
p456
(dp457
g3
(lp458
I83
asg5
I222
sba(imodels
Kmer
p459
(dp460
g3
(lp461
I467
asg5
I223
sba(imodels
Kmer
p462
(dp463
g3
(lp464
I574
asg5
I225
sba(imodels
Kmer
p465
(dp466
g3
(lp467
I503
asg5
I226
sba(imodels
Kmer
p468
(dp469
g3
(lp470
I18
aI174
aI1107
asg5
I228
sba(imodels
Kmer
p471
(dp472
g3
(lp473
I485
asg5
I230
sba(imodels
Kmer
p474
(dp475
g3
(lp476
I12
aI137
aI246
asg5
I231
sba(imodels
Kmer
p477
(dp478
g3
(lp479
I602
asg5
I232
sba(imodels
Kmer
p480
(dp481
g3
(lp482
I288
asg5
I233
sba(imodels
Kmer
p483
(dp484
g3
(lp485
I463
aI1086
aI1103
asg5
I236
sba(imodels
Kmer
p486
(dp487
g3
(lp488
I775
asg5
I237
sba(imodels
Kmer
p489
(dp490
g3
(lp491
I280
asg5
I238
sba(imodels
Kmer
p492
(dp493
g3
(lp494
I567
aI889
aI1098
asg5
I239
sba(imodels
Kmer
p495
(dp496
g3
(lp497
I232
aI819
asg5
I240
sba(imodels
Kmer
p498
(dp499
g3
(lp500
I238
aI984
asg5
I241
sba(imodels
Kmer
p501
(dp502
g3
(lp503
I26
aI72
aI77
asg5
I243
sba(imodels
Kmer
p504
(dp505
g3
(lp506
I227
aI790
asg5
I244
sba(imodels
Kmer
p507
(dp508
g3
(lp509
I520
asg5
I247
sba(imodels
Kmer
p510
(dp511
g3
(lp512
I754
asg5
I248
sba(imodels
Kmer
p513
(dp514
g3
(lp515
I964
asg5
I251
sba(imodels
Kmer
p516
(dp517
g3
(lp518
I606
asg5
I252
sba(imodels
Kmer
p519
(dp520
g3
(lp521
I313
aI545
asg5
I253
sba(imodels
Kmer
p522
(dp523
g3
(lp524
I903
aI1061
asg5
I254
sba(imodels
Kmer
p525
(dp526
g3
(lp527
I435
aI877
asg5
I255
sba(imodels
Kmer
p528
(dp529
g3
(lp530
I837
asg5
I256
sba(imodels
Kmer
p531
(dp532
g3
(lp533
I511
asg5
I257
sba(imodels
Kmer
p534
(dp535
g3
(lp536
I993
asg5
I258
sba(imodels
Kmer
p537
(dp538
g3
(lp539
I500
aI751
asg5
I259
sba(imodels
Kmer
p540
(dp541
g3
(lp542
I275
aI940
aI1118
asg5
I260
sba(imodels
Kmer
p543
(dp544
g3
(lp545
I943
asg5
I262
sba(imodels
Kmer
p546
(dp547
g3
(lp548
I354
aI579
asg5
I265
sba(imodels
Kmer
p549
(dp550
g3
(lp551
I560
aI643
asg5
I266
sba(imodels
Kmer
p552
(dp553
g3
(lp554
I343
aI1121
asg5
I268
sba(imodels
Kmer
p555
(dp556
g3
(lp557
I1044
asg5
I269
sba(imodels
Kmer
p558
(dp559
g3
(lp560
I278
aI887
asg5
I270
sba(imodels
Kmer
p561
(dp562
g3
(lp563
I230
asg5
I271
sba(imodels
Kmer
p564
(dp565
g3
(lp566
I98
aI334
asg5
I273
sba(imodels
Kmer
p567
(dp568
g3
(lp569
I100
asg5
I274
sba(imodels
Kmer
p570
(dp571
g3
(lp572
I827
asg5
I276
sba(imodels
Kmer
p573
(dp574
g3
(lp575
I268
aI317
aI1052
asg5
I278
sba(imodels
Kmer
p576
(dp577
g3
(lp578
I257
aI956
asg5
I279
sba(imodels
Kmer
p579
(dp580
g3
(lp581
I295
asg5
I280
sba(imodels
Kmer
p582
(dp583
g3
(lp584
I363
asg5
I281
sba(imodels
Kmer
p585
(dp586
g3
(lp587
I720
aI988
asg5
I282
sba(imodels
Kmer
p588
(dp589
g3
(lp590
I856
asg5
I283
sba(imodels
Kmer
p591
(dp592
g3
(lp593
I1110
asg5
I284
sba(imodels
Kmer
p594
(dp595
g3
(lp596
I695
asg5
I285
sba(imodels
Kmer
p597
(dp598
g3
(lp599
I336
aI414
aI710
asg5
I286
sba(imodels
Kmer
p600
(dp601
g3
(lp602
I706
asg5
I289
sba(imodels
Kmer
p603
(dp604
g3
(lp605
I730
asg5
I291
sba(imodels
Kmer
p606
(dp607
g3
(lp608
I508
asg5
I292
sba(imodels
Kmer
p609
(dp610
g3
(lp611
I1069
asg5
I293
sba(imodels
Kmer
p612
(dp613
g3
(lp614
I155
asg5
I294
sba(imodels
Kmer
p615
(dp616
g3
(lp617
I380
asg5
I295
sba(imodels
Kmer
p618
(dp619
g3
(lp620
I699
asg5
I296
sba(imodels
Kmer
p621
(dp622
g3
(lp623
I843
aI1013
asg5
I297
sba(imodels
Kmer
p624
(dp625
g3
(lp626
I478
asg5
I298
sba(imodels
Kmer
p627
(dp628
g3
(lp629
I450
asg5
I299
sba(imodels
Kmer
p630
(dp631
g3
(lp632
I1
aI102
aI367
aI793
aI830
asg5
I300
sba(imodels
Kmer
p633
(dp634
g3
(lp635
I359
asg5
I301
sba(imodels
Kmer
p636
(dp637
g3
(lp638
I185
asg5
I302
sba(imodels
Kmer
p639
(dp640
g3
(lp641
I392
asg5
I303
sba(imodels
Kmer
p642
(dp643
g3
(lp644
I623
aI1161
asg5
I304
sba(imodels
Kmer
p645
(dp646
g3
(lp647
I21
aI1021
asg5
I307
sba(imodels
Kmer
p648
(dp649
g3
(lp650
I377
aI447
asg5
I308
sba(imodels
Kmer
p651
(dp652
g3
(lp653
I39
aI177
aI924
asg5
I310
sba(imodels
Kmer
p654
(dp655
g3
(lp656
I199
asg5
I311
sba(imodels
Kmer
p657
(dp658
g3
(lp659
I573
asg5
I312
sba(imodels
Kmer
p660
(dp661
g3
(lp662
I173
asg5
I313
sba(imodels
Kmer
p663
(dp664
g3
(lp665
I462
aI774
aI1085
aI1097
asg5
I315
sba(imodels
Kmer
p666
(dp667
g3
(lp668
I963
asg5
I318
sba(imodels
Kmer
p669
(dp670
g3
(lp671
I876
asg5
I319
sba(imodels
Kmer
p672
(dp673
g3
(lp674
I836
asg5
I320
sba(imodels
Kmer
p675
(dp676
g3
(lp677
I274
aI1117
asg5
I321
sba(imodels
Kmer
p678
(dp679
g3
(lp680
I578
aI642
asg5
I322
sba(imodels
Kmer
p681
(dp682
g3
(lp683
I1043
asg5
I323
sba(imodels
Kmer
p684
(dp685
g3
(lp686
I294
aI855
asg5
I326
sba(imodels
Kmer
p687
(dp688
g3
(lp689
I477
aI842
asg5
I330
sba(imodels
Kmer
p690
(dp691
g3
(lp692
I184
aI358
aI829
asg5
I331
sba(imodels
Kmer
p693
(dp694
g3
(lp695
I1096
asg5
I334
sba(imodels
Kmer
p696
(dp697
g3
(lp698
I962
asg5
I335
sba(imodels
Kmer
p699
(dp700
g3
(lp701
I835
aI1042
asg5
I336
sba(imodels
Kmer
p702
(dp703
g3
(lp704
I476
asg5
I338
sba(imodels
Kmer
p705
(dp706
g3
(lp707
I1041
asg5
I340
sba(imodels
Kmer
p708
(dp709
g3
(lp710
I1072
asg5
I343
sba(imodels
Kmer
p711
(dp712
g3
(lp713
I263
asg5
I347
sba(imodels
Kmer
p714
(dp715
g3
(lp716
I658
asg5
I348
sba(imodels
Kmer
p717
(dp718
g3
(lp719
I1073
asg5
I350
sba(imodels
Kmer
p720
(dp721
g3
(lp722
I426
asg5
I351
sba(imodels
Kmer
p723
(dp724
g3
(lp725
I1009
asg5
I353
sba(imodels
Kmer
p726
(dp727
g3
(lp728
I810
asg5
I354
sba(imodels
Kmer
p729
(dp730
g3
(lp731
I331
aI953
asg5
I356
sba(imodels
Kmer
p732
(dp733
g3
(lp734
I319
aI590
asg5
I359
sba(imodels
Kmer
p735
(dp736
g3
(lp737
I270
asg5
I361
sba(imodels
Kmer
p738
(dp739
g3
(lp740
I633
asg5
I363
sba(imodels
Kmer
p741
(dp742
g3
(lp743
I264
aI671
aI1054
asg5
I365
sba(imodels
Kmer
p744
(dp745
g3
(lp746
I259
aI929
asg5
I369
sba(imodels
Kmer
p747
(dp748
g3
(lp749
I659
asg5
I370
sba(imodels
Kmer
p750
(dp751
g3
(lp752
I473
asg5
I373
sba(imodels
Kmer
p753
(dp754
g3
(lp755
I309
aI1029
aI1074
asg5
I376
sba(imodels
Kmer
p756
(dp757
g3
(lp758
I619
asg5
I377
sba(imodels
Kmer
p759
(dp760
g3
(lp761
I551
aI869
aI1153
asg5
I378
sba(imodels
Kmer
p762
(dp763
g3
(lp764
I958
asg5
I381
sba(imodels
Kmer
p765
(dp766
g3
(lp767
I427
aI1134
asg5
I382
sba(imodels
Kmer
p768
(dp769
g3
(lp770
I583
aI1091
asg5
I384
sba(imodels
Kmer
p771
(dp772
g3
(lp773
I94
asg5
I385
sba(imodels
Kmer
p774
(dp775
g3
(lp776
I649
asg5
I386
sba(imodels
Kmer
p777
(dp778
g3
(lp779
I816
asg5
I387
sba(imodels
Kmer
p780
(dp781
g3
(lp782
I1010
asg5
I388
sba(imodels
Kmer
p783
(dp784
g3
(lp785
I655
asg5
I389
sba(imodels
Kmer
p786
(dp787
g3
(lp788
I148
aI974
asg5
I390
sba(imodels
Kmer
p789
(dp790
g3
(lp791
I6
aI297
aI675
aI742
asg5
I391
sba(imodels
Kmer
p792
(dp793
g3
(lp794
I348
asg5
I394
sba(imodels
Kmer
p795
(dp796
g3
(lp797
I811
asg5
I395
sba(imodels
Kmer
p798
(dp799
g3
(lp800
I54
aI58
aI62
aI66
aI151
aI162
aI166
aI946
asg5
I397
sba(imodels
Kmer
p801
(dp802
g3
(lp803
I70
asg5
I399
sba(imodels
Kmer
p804
(dp805
g3
(lp806
I332
aI412
aI954
asg5
I401
sba(imodels
Kmer
p807
(dp808
g3
(lp809
I365
asg5
I402
sba(imodels
Kmer
p810
(dp811
g3
(lp812
I1159
asg5
I403
sba(imodels
Kmer
p813
(dp814
g3
(lp815
I292
aI853
asg5
I404
sba(imodels
Kmer
p816
(dp817
g3
(lp818
I927
asg5
I407
sba(imodels
Kmer
p819
(dp820
g3
(lp821
I42
asg5
I409
sba(imodels
Kmer
p822
(dp823
g3
(lp824
I44
asg5
I410
sba(imodels
Kmer
p825
(dp826
g3
(lp827
I212
asg5
I411
sba(imodels
Kmer
p828
(dp829
g3
(lp830
I404
aI441
aI1080
asg5
I412
sba(imodels
Kmer
p831
(dp832
g3
(lp833
I591
aI977
asg5
I413
sba(imodels
Kmer
p834
(dp835
g3
(lp836
I803
asg5
I414
sba(imodels
Kmer
p837
(dp838
g3
(lp839
I320
asg5
I415
sba(imodels
Kmer
p840
(dp841
g3
(lp842
I598
asg5
I416
sba(imodels
Kmer
p843
(dp844
g3
(lp845
I285
aI981
aI1058
asg5
I419
sba(imodels
Kmer
p846
(dp847
g3
(lp848
I771
aI990
asg5
I420
sba(imodels
Kmer
p849
(dp850
g3
(lp851
I271
aI950
asg5
I421
sba(imodels
Kmer
p852
(dp853
g3
(lp854
I420
aI525
aI681
asg5
I422
sba(imodels
Kmer
p855
(dp856
g3
(lp857
I861
asg5
I423
sba(imodels
Kmer
p858
(dp859
g3
(lp860
I46
asg5
I424
sba(imodels
Kmer
p861
(dp862
g3
(lp863
I847
asg5
I425
sba(imodels
Kmer
p864
(dp865
g3
(lp866
I488
aI919
asg5
I427
sba(imodels
Kmer
p867
(dp868
g3
(lp869
I684
asg5
I428
sba(imodels
Kmer
p870
(dp871
g3
(lp872
I722
asg5
I429
sba(imodels
Kmer
p873
(dp874
g3
(lp875
I634
asg5
I430
sba(imodels
Kmer
p876
(dp877
g3
(lp878
I387
aI515
asg5
I432
sba(imodels
Kmer
p879
(dp880
g3
(lp881
I158
aI180
asg5
I433
sba(imodels
Kmer
p882
(dp883
g3
(lp884
I214
aI1129
aI1148
asg5
I434
sba(imodels
Kmer
p885
(dp886
g3
(lp887
I542
asg5
I435
sba(imodels
Kmer
p888
(dp889
g3
(lp890
I170
aI265
asg5
I436
sba(imodels
Kmer
p891
(dp892
g3
(lp893
I423
asg5
I437
sba(imodels
Kmer
p894
(dp895
g3
(lp896
I672
aI858
aI1055
asg5
I438
sba(imodels
Kmer
p897
(dp898
g3
(lp899
I528
asg5
I441
sba(imodels
Kmer
p900
(dp901
g3
(lp902
I494
aI969
asg5
I442
sba(imodels
Kmer
p903
(dp904
g3
(lp905
I194
asg5
I443
sba(imodels
Kmer
p906
(dp907
g3
(lp908
I242
aI611
aI1036
asg5
I444
sba(imodels
Kmer
p909
(dp910
g3
(lp911
I373
aI1048
asg5
I445
sba(imodels
Kmer
p912
(dp913
g3
(lp914
I735
asg5
I447
sba(imodels
Kmer
p915
(dp916
g3
(lp917
I406
asg5
I448
sba(imodels
Kmer
p918
(dp919
g3
(lp920
I383
aI667
asg5
I449
sba(imodels
Kmer
p921
(dp922
g3
(lp923
I325
aI864
aI933
asg5
I451
sba(imodels
Kmer
p924
(dp925
g3
(lp926
I1066
aI1082
asg5
I452
sba(imodels
Kmer
p927
(dp928
g3
(lp929
I260
asg5
I453
sba(imodels
Kmer
p930
(dp931
g3
(lp932
I595
asg5
I454
sba(imodels
Kmer
p933
(dp934
g3
(lp935
I249
aI930
asg5
I455
sba(imodels
Kmer
p936
(dp937
g3
(lp938
I35
aI443
aI458
aI726
aI1017
asg5
I457
sba(imodels
Kmer
p939
(dp940
g3
(lp941
I113
aI202
aI660
aI745
aI1112
asg5
I458
sba(imodels
Kmer
p942
(dp943
g3
(lp944
I108
asg5
I459
sba(imodels
Kmer
p945
(dp946
g3
(lp947
I135
asg5
I462
sba(imodels
Kmer
p948
(dp949
g3
(lp950
I697
asg5
I466
sba(imodels
Kmer
p951
(dp952
g3
(lp953
I474
asg5
I469
sba(imodels
Kmer
p954
(dp955
g3
(lp956
I549
asg5
I471
sba(imodels
Kmer
p957
(dp958
g3
(lp959
I402
aI851
asg5
I473
sba(imodels
Kmer
p960
(dp961
g3
(lp962
I523
aI979
asg5
I474
sba(imodels
Kmer
p963
(dp964
g3
(lp965
I540
asg5
I475
sba(imodels
Kmer
p966
(dp967
g3
(lp968
I593
asg5
I476
sba(imodels
Kmer
p969
(dp970
g3
(lp971
I894
aI1075
asg5
I480
sba(imodels
Kmer
p972
(dp973
g3
(lp974
I85
aI126
aI140
aI144
asg5
I481
sba(imodels
Kmer
p975
(dp976
g3
(lp977
I120
aI130
aI1030
asg5
I482
sba(imodels
Kmer
p978
(dp979
g3
(lp980
I9
aI15
aI89
aI310
aI712
aI805
asg5
I483
sba(imodels
Kmer
p981
(dp982
g3
(lp983
I620
asg5
I484
sba(imodels
Kmer
p984
(dp985
g3
(lp986
I616
asg5
I485
sba(imodels
Kmer
p987
(dp988
g3
(lp989
I552
asg5
I488
sba(imodels
Kmer
p990
(dp991
g3
(lp992
I779
asg5
I489
sba(imodels
Kmer
p993
(dp994
g3
(lp995
I304
aI338
asg5
I490
sba(imodels
Kmer
p996
(dp997
g3
(lp998
I870
aI1154
asg5
I491
sba(imodels
Kmer
p999
(dp1000
g3
(lp1001
I252
asg5
I492
sba(imodels
Kmer
p1002
(dp1003
g3
(lp1004
I416
asg5
I493
sba(imodels
Kmer
p1005
(dp1006
g3
(lp1007
I300
asg5
I497
sba(imodels
Kmer
p1008
(dp1009
g3
(lp1010
I959
asg5
I501
sba(imodels
Kmer
p1011
(dp1012
g3
(lp1013
I678
asg5
I502
sba(imodels
Kmer
p1014
(dp1015
g3
(lp1016
I322
asg5
I503
sba(imodels
Kmer
p1017
(dp1018
g3
(lp1019
I428
aI532
asg5
I506
sba(imodels
Kmer
p1020
(dp1021
g3
(lp1022
I1001
aI1135
asg5
I507
sba(imodels
Kmer
p1023
(dp1024
g3
(lp1025
I783
asg5
I508
sba(imodels
Kmer
p1026
(dp1027
g3
(lp1028
I469
asg5
I509
sba(imodels
Kmer
p1029
(dp1030
g3
(lp1031
I899
asg5
I512
sba(imodels
Kmer
p1032
(dp1033
g3
(lp1034
I1092
asg5
I513
sba(imodels
Kmer
p1035
(dp1036
g3
(lp1037
I584
aI909
asg5
I514
sba(imodels
Kmer
p1038
(dp1039
g3
(lp1040
I564
asg5
I515
sba(imodels
Kmer
p1041
(dp1042
g3
(lp1043
I95
asg5
I516
sba(imodels
Kmer
p1044
(dp1045
g3
(lp1046
I1077
asg5
I518
sba(imodels
Kmer
p1047
(dp1048
g3
(lp1049
I896
asg5
I520
sba(imodels
Kmer
p1050
(dp1051
g3
(lp1052
I702
asg5
I521
sba(imodels
Kmer
p1053
(dp1054
g3
(lp1055
I650
aI913
asg5
I522
sba(imodels
Kmer
p1056
(dp1057
g3
(lp1058
I600
asg5
I526
sba(imodels
Kmer
p1059
(dp1060
g3
(lp1061
I788
aI817
asg5
I527
sba(imodels
Kmer
p1062
(dp1063
g3
(lp1064
I498
asg5
I528
sba(imodels
Kmer
p1065
(dp1066
g3
(lp1067
I708
aI718
asg5
I529
sba(imodels
Kmer
p1068
(dp1069
g3
(lp1070
I1011
asg5
I530
sba(imodels
Kmer
p1071
(dp1072
g3
(lp1073
I576
asg5
I532
sba(imodels
Kmer
p1074
(dp1075
g3
(lp1076
I656
asg5
I533
sba(imodels
Kmer
p1077
(dp1078
g3
(lp1079
I631
asg5
I534
sba(imodels
Kmer
p1080
(dp1081
g3
(lp1082
I146
aI149
aI647
aI740
asg5
I536
sba(imodels
Kmer
p1083
(dp1084
g3
(lp1085
I975
asg5
I537
sba(imodels
Kmer
p1086
(dp1087
g3
(lp1088
I917
asg5
I538
sba(imodels
Kmer
p1089
(dp1090
g3
(lp1091
I1127
asg5
I539
sba(imodels
Kmer
p1092
(dp1093
g3
(lp1094
I743
asg5
I540
sba(imodels
Kmer
p1095
(dp1096
g3
(lp1097
I7
aI87
aI128
aI142
asg5
I542
sba(imodels
Kmer
p1098
(dp1099
g3
(lp1100
I298
aI676
asg5
I543
sba(imodels
Kmer
p1101
(dp1102
g3
(lp1103
I629
asg5
I545
sba(imodels
Kmer
p1104
(dp1105
g3
(lp1106
I555
asg5
I547
sba(imodels
Kmer
p1107
(dp1108
g3
(lp1109
I505
asg5
I548
sba(imodels
Kmer
p1110
(dp1111
g3
(lp1112
I132
asg5
I551
sba(imodels
Kmer
p1113
(dp1114
g3
(lp1115
I398
aI1032
asg5
I553
sba(imodels
Kmer
p1116
(dp1117
g3
(lp1118
I206
asg5
I554
sba(imodels
Kmer
p1119
(dp1120
g3
(lp1121
I349
asg5
I555
sba(imodels
Kmer
p1122
(dp1123
g3
(lp1124
I122
aI812
asg5
I557
sba(imodels
Kmer
p1125
(dp1126
g3
(lp1127
I757
asg5
I558
sba(imodels
Kmer
p1128
(dp1129
g3
(lp1130
I219
asg5
I560
sba(imodels
Kmer
p1131
(dp1132
g3
(lp1133
I714
asg5
I562
sba(imodels
Kmer
p1134
(dp1135
g3
(lp1136
I49
asg5
I563
sba(imodels
Kmer
p1137
(dp1138
g3
(lp1139
I152
aI557
asg5
I564
sba(imodels
Kmer
p1140
(dp1141
g3
(lp1142
I807
asg5
I565
sba(imodels
Kmer
p1143
(dp1144
g3
(lp1145
I55
aI59
aI63
aI67
aI91
aI163
aI167
aI732
aI947
asg5
I566
sba(imodels
Kmer
p1146
(dp1147
g3
(lp1148
I11
aI17
asg5
I569
sba(imodels
Kmer
p1149
(dp1150
g3
(lp1151
I287
asg5
I570
sba(imodels
Kmer
p1152
(dp1153
g3
(lp1154
I71
aI237
aI983
asg5
I572
sba(imodels
Kmer
p1155
(dp1156
g3
(lp1157
I312
aI605
aI1060
asg5
I575
sba(imodels
Kmer
p1158
(dp1159
g3
(lp1160
I510
aI992
asg5
I576
sba(imodels
Kmer
p1161
(dp1162
g3
(lp1163
I939
asg5
I577
sba(imodels
Kmer
p1164
(dp1165
g3
(lp1166
I342
asg5
I579
sba(imodels
Kmer
p1167
(dp1168
g3
(lp1169
I333
asg5
I580
sba(imodels
Kmer
p1170
(dp1171
g3
(lp1172
I955
asg5
I581
sba(imodels
Kmer
p1173
(dp1174
g3
(lp1175
I413
aI1109
asg5
I583
sba(imodels
Kmer
p1176
(dp1177
g3
(lp1178
I705
aI729
asg5
I584
sba(imodels
Kmer
p1179
(dp1180
g3
(lp1181
I507
asg5
I585
sba(imodels
Kmer
p1182
(dp1183
g3
(lp1184
I366
asg5
I587
sba(imodels
Kmer
p1185
(dp1186
g3
(lp1187
I20
aI622
aI1020
aI1160
asg5
I588
sba(imodels
Kmer
p1188
(dp1189
g3
(lp1190
I38
aI176
aI446
asg5
I589
sba(imodels
Kmer
p1191
(dp1192
g3
(lp1193
I461
aI773
asg5
I590
sba(imodels
Kmer
p1194
(dp1195
g3
(lp1196
I273
aI641
aI1116
asg5
I592
sba(imodels
Kmer
p1197
(dp1198
g3
(lp1199
I293
aI854
asg5
I593
sba(imodels
Kmer
p1200
(dp1201
g3
(lp1202
I357
asg5
I594
sba(imodels
Kmer
p1203
(dp1204
g3
(lp1205
I1071
asg5
I597
sba(imodels
Kmer
p1206
(dp1207
g3
(lp1208
I589
aI952
asg5
I601
sba(imodels
Kmer
p1209
(dp1210
g3
(lp1211
I928
asg5
I604
sba(imodels
Kmer
p1212
(dp1213
g3
(lp1214
I308
aI618
aI1152
asg5
I606
sba(imodels
Kmer
p1215
(dp1216
g3
(lp1217
I1133
asg5
I607
sba(imodels
Kmer
p1218
(dp1219
g3
(lp1220
I582
asg5
I608
sba(imodels
Kmer
p1221
(dp1222
g3
(lp1223
I654
aI973
asg5
I609
sba(imodels
Kmer
p1224
(dp1225
g3
(lp1226
I291
asg5
I613
sba(imodels
Kmer
p1227
(dp1228
g3
(lp1229
I43
aI211
asg5
I614
sba(imodels
Kmer
p1230
(dp1231
g3
(lp1232
I802
asg5
I615
sba(imodels
Kmer
p1233
(dp1234
g3
(lp1235
I284
asg5
I616
sba(imodels
Kmer
p1236
(dp1237
g3
(lp1238
I45
aI487
aI846
asg5
I618
sba(imodels
Kmer
p1239
(dp1240
g3
(lp1241
I683
asg5
I619
sba(imodels
Kmer
p1242
(dp1243
g3
(lp1244
I157
aI213
asg5
I620
sba(imodels
Kmer
p1245
(dp1246
g3
(lp1247
I422
asg5
I621
sba(imodels
Kmer
p1248
(dp1249
g3
(lp1250
I493
aI527
asg5
I622
sba(imodels
Kmer
p1251
(dp1252
g3
(lp1253
I1035
asg5
I623
sba(imodels
Kmer
p1254
(dp1255
g3
(lp1256
I382
aI405
aI863
asg5
I624
sba(imodels
Kmer
p1257
(dp1258
g3
(lp1259
I248
aI1065
aI1081
asg5
I625
sba(imodels
Kmer
p1260
(dp1261
g3
(lp1262
I34
aI107
aI442
aI457
aI1016
asg5
I626
sba(imodels
Kmer
p1263
(dp1264
g3
(lp1265
I134
asg5
I627
sba(imodels
Kmer
p1266
(dp1267
g3
(lp1268
I401
aI850
aI978
asg5
I630
sba(imodels
Kmer
p1269
(dp1270
g3
(lp1271
I592
asg5
I631
sba(imodels
Kmer
p1272
(dp1273
g3
(lp1274
I14
aI139
aI804
asg5
I632
sba(imodels
Kmer
p1275
(dp1276
g3
(lp1277
I321
asg5
I637
sba(imodels
Kmer
p1278
(dp1279
g3
(lp1280
I531
aI1000
asg5
I638
sba(imodels
Kmer
p1281
(dp1282
g3
(lp1283
I782
asg5
I639
sba(imodels
Kmer
p1284
(dp1285
g3
(lp1286
I563
asg5
I640
sba(imodels
Kmer
p1287
(dp1288
g3
(lp1289
I701
asg5
I642
sba(imodels
Kmer
p1290
(dp1291
g3
(lp1292
I599
asg5
I643
sba(imodels
Kmer
p1293
(dp1294
g3
(lp1295
I497
asg5
I644
sba(imodels
Kmer
p1296
(dp1297
g3
(lp1298
I646
aI916
aI1126
asg5
I646
sba(imodels
Kmer
p1299
(dp1300
g3
(lp1301
I554
aI628
asg5
I648
sba(imodels
Kmer
p1302
(dp1303
g3
(lp1304
I205
asg5
I650
sba(imodels
Kmer
p1305
(dp1306
g3
(lp1307
I48
aI218
asg5
I652
sba(imodels
Kmer
p1308
(dp1309
g3
(lp1310
I286
asg5
I654
sba(imodels
Kmer
p1311
(dp1312
g3
(lp1313
I604
aI982
aI1059
asg5
I655
sba(imodels
Kmer
p1314
(dp1315
g3
(lp1316
I341
aI991
asg5
I656
sba(imodels
Kmer
p1317
(dp1318
g3
(lp1319
I772
asg5
I659
sba(imodels
Kmer
p1320
(dp1321
g3
(lp1322
I272
aI1115
asg5
I660
sba(imodels
Kmer
p1323
(dp1324
g3
(lp1325
I588
aI951
asg5
I662
sba(imodels
Kmer
p1326
(dp1327
g3
(lp1328
I307
asg5
I663
sba(imodels
Kmer
p1329
(dp1330
g3
(lp1331
I653
aI972
asg5
I664
sba(imodels
Kmer
p1332
(dp1333
g3
(lp1334
I210
aI290
asg5
I665
sba(imodels
Kmer
p1335
(dp1336
g3
(lp1337
I682
aI845
asg5
I666
sba(imodels
Kmer
p1338
(dp1339
g3
(lp1340
I421
aI526
aI1034
asg5
I667
sba(imodels
Kmer
p1341
(dp1342
g3
(lp1343
I456
aI862
aI1015
asg5
I668
sba(imodels
Kmer
p1344
(dp1345
g3
(lp1346
I400
aI849
asg5
I669
sba(imodels
Kmer
p1347
(dp1348
g3
(lp1349
I781
asg5
I671
sba(imodels
Kmer
p1350
(dp1351
g3
(lp1352
I47
asg5
I675
sba(imodels
Kmer
p1353
(dp1354
g3
(lp1355
I340
asg5
I676
sba(imodels
Kmer
p1356
(dp1357
g3
(lp1358
I306
asg5
I677
sba(imodels
Kmer
p1359
(dp1360
g3
(lp1361
I209
asg5
I678
sba(imodels
Kmer
p1362
(dp1363
g3
(lp1364
I848
asg5
I679
sba(imodels
Kmer
p1365
(dp1366
g3
(lp1367
I208
asg5
I681
sba(imodels
Kmer
p1368
(dp1369
g3
(lp1370
I480
asg5
I683
sba(imodels
Kmer
p1371
(dp1372
g3
(lp1373
I431
aI481
asg5
I684
sba(imodels
Kmer
p1374
(dp1375
g3
(lp1376
I920
asg5
I685
sba(imodels
Kmer
p1377
(dp1378
g3
(lp1379
I489
asg5
I686
sba(imodels
Kmer
p1380
(dp1381
g3
(lp1382
I685
asg5
I688
sba(imodels
Kmer
p1383
(dp1384
g3
(lp1385
I116
aI872
asg5
I689
sba(imodels
Kmer
p1386
(dp1387
g3
(lp1388
I452
asg5
I690
sba(imodels
Kmer
p1389
(dp1390
g3
(lp1391
I432
aI482
aI690
asg5
I691
sba(imodels
Kmer
p1392
(dp1393
g3
(lp1394
I351
aI748
aI921
asg5
I692
sba(imodels
Kmer
p1395
(dp1396
g3
(lp1397
I1156
asg5
I694
sba(imodels
Kmer
p1398
(dp1399
g3
(lp1400
I723
asg5
I695
sba(imodels
Kmer
p1401
(dp1402
g3
(lp1403
I490
aI997
asg5
I697
sba(imodels
Kmer
p1404
(dp1405
g3
(lp1406
I535
aI635
asg5
I699
sba(imodels
Kmer
p1407
(dp1408
g3
(lp1409
I663
asg5
I701
sba(imodels
Kmer
p1410
(dp1411
g3
(lp1412
I761
asg5
I703
sba(imodels
Kmer
p1413
(dp1414
g3
(lp1415
I516
aI882
asg5
I704
sba(imodels
Kmer
p1416
(dp1417
g3
(lp1418
I369
aI388
asg5
I705
sba(imodels
Kmer
p1419
(dp1420
g3
(lp1421
I686
asg5
I706
sba(imodels
Kmer
p1422
(dp1423
g3
(lp1424
I254
aI873
aI1166
asg5
I708
sba(imodels
Kmer
p1425
(dp1426
g3
(lp1427
I181
aI832
asg5
I709
sba(imodels
Kmer
p1428
(dp1429
g3
(lp1430
I3
aI159
aI1088
aI1145
asg5
I710
sba(imodels
Kmer
p1431
(dp1432
g3
(lp1433
I117
asg5
I711
sba(imodels
Kmer
p1434
(dp1435
g3
(lp1436
I104
aI638
aI1130
aI1149
asg5
I713
sba(imodels
Kmer
p1437
(dp1438
g3
(lp1439
I215
aI453
asg5
I714
sba(imodels
Kmer
p1440
(dp1441
g3
(lp1442
I1138
asg5
I715
sba(imodels
Kmer
p1443
(dp1444
g3
(lp1445
I795
asg5
I716
sba(imodels
Kmer
p1446
(dp1447
g3
(lp1448
I465
aI691
asg5
I717
sba(imodels
Kmer
p1449
(dp1450
g3
(lp1451
I483
aI1105
asg5
I718
sba(imodels
Kmer
p1452
(dp1453
g3
(lp1454
I433
aI543
asg5
I719
sba(imodels
Kmer
p1455
(dp1456
g3
(lp1457
I352
aI749
asg5
I720
sba(imodels
Kmer
p1458
(dp1459
g3
(lp1460
I266
aI361
asg5
I721
sba(imodels
Kmer
p1461
(dp1462
g3
(lp1463
I171
aI197
aI922
asg5
I723
sba(imodels
Kmer
p1464
(dp1465
g3
(lp1466
I424
asg5
I725
sba(imodels
Kmer
p1467
(dp1468
g3
(lp1469
I673
aI814
asg5
I728
sba(imodels
Kmer
p1470
(dp1471
g3
(lp1472
I1157
asg5
I729
sba(imodels
Kmer
p1473
(dp1474
g3
(lp1475
I418
aI859
aI1056
asg5
I730
sba(imodels
Kmer
p1476
(dp1477
g3
(lp1478
I967
asg5
I731
sba(imodels
Kmer
p1479
(dp1480
g3
(lp1481
I111
aI724
asg5
I732
sba(imodels
Kmer
p1482
(dp1483
g3
(lp1484
I538
asg5
I733
sba(imodels
Kmer
p1485
(dp1486
g3
(lp1487
I124
aI777
asg5
I734
sba(imodels
Kmer
p1488
(dp1489
g3
(lp1490
I907
asg5
I736
sba(imodels
Kmer
p1491
(dp1492
g3
(lp1493
I282
aI491
aI800
asg5
I742
sba(imodels
Kmer
p1494
(dp1495
g3
(lp1496
I529
aI998
asg5
I743
sba(imodels
Kmer
p1497
(dp1498
g3
(lp1499
I495
asg5
I744
sba(imodels
Kmer
p1500
(dp1501
g3
(lp1502
I970
asg5
I745
sba(imodels
Kmer
p1503
(dp1504
g3
(lp1505
I759
asg5
I747
sba(imodels
Kmer
p1506
(dp1507
g3
(lp1508
I636
asg5
I748
sba(imodels
Kmer
p1509
(dp1510
g3
(lp1511
I195
aI536
asg5
I749
sba(imodels
Kmer
p1512
(dp1513
g3
(lp1514
I187
asg5
I750
sba(imodels
Kmer
p1515
(dp1516
g3
(lp1517
I189
aI1004
asg5
I751
sba(imodels
Kmer
p1518
(dp1519
g3
(lp1520
I612
aI1037
asg5
I753
sba(imodels
Kmer
p1521
(dp1522
g3
(lp1523
I394
aI1141
asg5
I754
sba(imodels
Kmer
p1524
(dp1525
g3
(lp1526
I243
aI1100
asg5
I755
sba(imodels
Kmer
p1527
(dp1528
g3
(lp1529
I374
aI1049
asg5
I756
sba(imodels
Kmer
p1530
(dp1531
g3
(lp1532
I1006
asg5
I757
sba(imodels
Kmer
p1533
(dp1534
g3
(lp1535
I191
asg5
I758
sba(imodels
Kmer
p1536
(dp1537
g3
(lp1538
I664
aI891
asg5
I759
sba(imodels
Kmer
p1539
(dp1540
g3
(lp1541
I762
asg5
I764
sba(imodels
Kmer
p1542
(dp1543
g3
(lp1544
I569
asg5
I765
sba(imodels
Kmer
p1545
(dp1546
g3
(lp1547
I736
asg5
I766
sba(imodels
Kmer
p1548
(dp1549
g3
(lp1550
I821
asg5
I768
sba(imodels
Kmer
p1551
(dp1552
g3
(lp1553
I883
asg5
I769
sba(imodels
Kmer
p1554
(dp1555
g3
(lp1556
I221
aI407
aI517
asg5
I771
sba(imodels
Kmer
p1557
(dp1558
g3
(lp1559
I389
asg5
I772
sba(imodels
Kmer
p1560
(dp1561
g3
(lp1562
I668
asg5
I773
sba(imodels
Kmer
p1563
(dp1564
g3
(lp1565
I370
aI384
asg5
I774
sba(imodels
Kmer
p1566
(dp1567
g3
(lp1568
I234
asg5
I776
sba(imodels
Kmer
p1569
(dp1570
g3
(lp1571
I625
aI687
asg5
I778
sba(imodels
Kmer
p1572
(dp1573
g3
(lp1574
I1163
asg5
I779
sba(imodels
Kmer
p1575
(dp1576
g3
(lp1577
I326
aI765
aI934
asg5
I780
sba(imodels
Kmer
p1578
(dp1579
g3
(lp1580
I81
aI865
aI1025
asg5
I781
sba(imodels
Kmer
p1581
(dp1582
g3
(lp1583
I225
asg5
I783
sba(imodels
Kmer
p1584
(dp1585
g3
(lp1586
I255
aI986
asg5
I785
sba(imodels
Kmer
p1587
(dp1588
g3
(lp1589
I1067
aI1167
asg5
I786
sba(imodels
Kmer
p1590
(dp1591
g3
(lp1592
I874
aI1083
asg5
I787
sba(imodels
Kmer
p1593
(dp1594
g3
(lp1595
I182
asg5
I788
sba(imodels
Kmer
p1596
(dp1597
g3
(lp1598
I261
aI833
aI1039
asg5
I789
sba(imodels
Kmer
p1599
(dp1600
g3
(lp1601
I329
asg5
I790
sba(imodels
Kmer
p1602
(dp1603
g3
(lp1604
I4
aI160
aI346
aI1089
asg5
I792
sba(imodels
Kmer
p1605
(dp1606
g3
(lp1607
I439
asg5
I793
sba(imodels
Kmer
p1608
(dp1609
g3
(lp1610
I596
asg5
I794
sba(imodels
Kmer
p1611
(dp1612
g3
(lp1613
I240
aI609
aI1146
asg5
I795
sba(imodels
Kmer
p1614
(dp1615
g3
(lp1616
I931
asg5
I796
sba(imodels
Kmer
p1617
(dp1618
g3
(lp1619
I118
aI250
aI302
aI614
asg5
I798
sba(imodels
Kmer
p1620
(dp1621
g3
(lp1622
I786
asg5
I800
sba(imodels
Kmer
p1623
(dp1624
g3
(lp1625
I716
asg5
I801
sba(imodels
Kmer
p1626
(dp1627
g3
(lp1628
I396
asg5
I802
sba(imodels
Kmer
p1629
(dp1630
g3
(lp1631
I36
aI444
aI459
aI727
aI937
aI1018
asg5
I804
sba(imodels
Kmer
p1632
(dp1633
g3
(lp1634
I639
aI1131
aI1150
asg5
I805
sba(imodels
Kmer
p1635
(dp1636
g3
(lp1637
I32
aI105
asg5
I807
sba(imodels
Kmer
p1638
(dp1639
g3
(lp1640
I203
aI216
aI1124
asg5
I808
sba(imodels
Kmer
p1641
(dp1642
g3
(lp1643
I454
aI1113
asg5
I809
sba(imodels
Kmer
p1644
(dp1645
g3
(lp1646
I114
aI661
aI746
asg5
I811
sba(imodels
Kmer
p1647
(dp1648
g3
(lp1649
I1143
asg5
I812
sba(imodels
Kmer
p1650
(dp1651
g3
(lp1652
I109
asg5
I813
sba(imodels
Kmer
p1653
(dp1654
g3
(lp1655
I798
asg5
I814
sba(imodels
Kmer
p1656
(dp1657
g3
(lp1658
I1139
asg5
I815
sba(imodels
Kmer
p1659
(dp1660
g3
(lp1661
I79
aI1023
asg5
I816
sba(imodels
Kmer
p1662
(dp1663
g3
(lp1664
I30
aI796
asg5
I818
sba(imodels
Kmer
p1665
(dp1666
g3
(lp1667
I23
aI28
aI74
asg5
I819
sba(imodels
Kmer
p1668
(dp1669
g3
(lp1670
I692
asg5
I820
sba(imodels
Kmer
p1671
(dp1672
g3
(lp1673
I51
aI768
asg5
I822
sba(imodels
Kmer
p1674
(dp1675
g3
(lp1676
I466
asg5
I823
sba(imodels
Kmer
p1677
(dp1678
g3
(lp1679
I136
aI245
aI484
aI1106
asg5
I825
sba(imodels
Kmer
p1680
(dp1681
g3
(lp1682
I1102
asg5
I827
sba(imodels
Kmer
p1683
(dp1684
g3
(lp1685
I25
aI76
asg5
I828
sba(imodels
Kmer
p1686
(dp1687
g3
(lp1688
I434
aI544
asg5
I831
sba(imodels
Kmer
p1689
(dp1690
g3
(lp1691
I750
asg5
I832
sba(imodels
Kmer
p1692
(dp1693
g3
(lp1694
I353
aI559
asg5
I834
sba(imodels
Kmer
p1695
(dp1696
g3
(lp1697
I229
asg5
I835
sba(imodels
Kmer
p1698
(dp1699
g3
(lp1700
I267
aI316
aI1051
asg5
I837
sba(imodels
Kmer
p1701
(dp1702
g3
(lp1703
I362
asg5
I838
sba(imodels
Kmer
p1704
(dp1705
g3
(lp1706
I694
asg5
I839
sba(imodels
Kmer
p1707
(dp1708
g3
(lp1709
I154
aI379
asg5
I841
sba(imodels
Kmer
p1710
(dp1711
g3
(lp1712
I449
aI698
asg5
I842
sba(imodels
Kmer
p1713
(dp1714
g3
(lp1715
I792
asg5
I843
sba(imodels
Kmer
p1716
(dp1717
g3
(lp1718
I198
aI376
aI923
asg5
I845
sba(imodels
Kmer
p1719
(dp1720
g3
(lp1721
I172
aI572
asg5
I846
sba(imodels
Kmer
p1722
(dp1723
g3
(lp1724
I961
asg5
I851
sba(imodels
Kmer
p1725
(dp1726
g3
(lp1727
I475
asg5
I852
sba(imodels
Kmer
p1728
(dp1729
g3
(lp1730
I425
asg5
I855
sba(imodels
Kmer
p1731
(dp1732
g3
(lp1733
I809
aI1008
asg5
I856
sba(imodels
Kmer
p1734
(dp1735
g3
(lp1736
I472
asg5
I861
sba(imodels
Kmer
p1737
(dp1738
g3
(lp1739
I550
aI868
aI1028
asg5
I862
sba(imodels
Kmer
p1740
(dp1741
g3
(lp1742
I93
aI815
asg5
I864
sba(imodels
Kmer
p1743
(dp1744
g3
(lp1745
I674
asg5
I865
sba(imodels
Kmer
p1746
(dp1747
g3
(lp1748
I53
aI57
aI61
aI65
aI69
aI165
asg5
I867
sba(imodels
Kmer
p1749
(dp1750
g3
(lp1751
I411
aI1158
asg5
I868
sba(imodels
Kmer
p1752
(dp1753
g3
(lp1754
I852
aI926
asg5
I869
sba(imodels
Kmer
p1755
(dp1756
g3
(lp1757
I41
asg5
I870
sba(imodels
Kmer
p1758
(dp1759
g3
(lp1760
I403
asg5
I871
sba(imodels
Kmer
p1761
(dp1762
g3
(lp1763
I980
aI1057
asg5
I872
sba(imodels
Kmer
p1764
(dp1765
g3
(lp1766
I419
aI524
aI680
aI770
aI860
aI949
asg5
I873
sba(imodels
Kmer
p1767
(dp1768
g3
(lp1769
I179
aI541
asg5
I876
sba(imodels
Kmer
p1770
(dp1771
g3
(lp1772
I169
asg5
I877
sba(imodels
Kmer
p1773
(dp1774
g3
(lp1775
I193
aI968
asg5
I878
sba(imodels
Kmer
p1776
(dp1777
g3
(lp1778
I734
aI1047
asg5
I879
sba(imodels
Kmer
p1779
(dp1780
g3
(lp1781
I324
aI666
asg5
I880
sba(imodels
Kmer
p1782
(dp1783
g3
(lp1784
I594
asg5
I881
sba(imodels
Kmer
p1785
(dp1786
g3
(lp1787
I112
aI201
aI725
asg5
I882
sba(imodels
Kmer
p1788
(dp1789
g3
(lp1790
I548
asg5
I885
sba(imodels
Kmer
p1791
(dp1792
g3
(lp1793
I522
aI539
asg5
I886
sba(imodels
Kmer
p1794
(dp1795
g3
(lp1796
I84
aI125
aI893
asg5
I888
sba(imodels
Kmer
p1797
(dp1798
g3
(lp1799
I778
asg5
I890
sba(imodels
Kmer
p1800
(dp1801
g3
(lp1802
I468
asg5
I895
sba(imodels
Kmer
p1803
(dp1804
g3
(lp1805
I908
asg5
I896
sba(imodels
Kmer
p1806
(dp1807
g3
(lp1808
I1076
asg5
I897
sba(imodels
Kmer
p1809
(dp1810
g3
(lp1811
I895
asg5
I898
sba(imodels
Kmer
p1812
(dp1813
g3
(lp1814
I575
asg5
I901
sba(imodels
Kmer
p1815
(dp1816
g3
(lp1817
I145
aI739
asg5
I902
sba(imodels
Kmer
p1818
(dp1819
g3
(lp1820
I86
aI127
aI141
asg5
I903
sba(imodels
Kmer
p1821
(dp1822
g3
(lp1823
I131
aI504
asg5
I905
sba(imodels
Kmer
p1824
(dp1825
g3
(lp1826
I1031
asg5
I906
sba(imodels
Kmer
p1827
(dp1828
g3
(lp1829
I121
aI756
asg5
I907
sba(imodels
Kmer
p1830
(dp1831
g3
(lp1832
I713
asg5
I908
sba(imodels
Kmer
p1833
(dp1834
g3
(lp1835
I90
aI806
asg5
I909
sba(imodels
Kmer
p1836
(dp1837
g3
(lp1838
I10
aI16
asg5
I910
sba(imodels
Kmer
p1839
(dp1840
g3
(lp1841
I311
asg5
I911
sba(imodels
Kmer
p1842
(dp1843
g3
(lp1844
I1108
asg5
I913
sba(imodels
Kmer
p1845
(dp1846
g3
(lp1847
I19
aI175
aI621
asg5
I915
sba(imodels
Kmer
p1848
(dp1849
g3
(lp1850
I617
asg5
I919
sba(imodels
Kmer
p1851
(dp1852
g3
(lp1853
I801
asg5
I921
sba(imodels
Kmer
p1854
(dp1855
g3
(lp1856
I283
aI486
asg5
I922
sba(imodels
Kmer
p1857
(dp1858
g3
(lp1859
I492
asg5
I923
sba(imodels
Kmer
p1860
(dp1861
g3
(lp1862
I247
aI1064
asg5
I924
sba(imodels
Kmer
p1863
(dp1864
g3
(lp1865
I13
aI138
asg5
I926
sba(imodels
Kmer
p1866
(dp1867
g3
(lp1868
I530
aI999
asg5
I927
sba(imodels
Kmer
p1869
(dp1870
g3
(lp1871
I496
asg5
I929
sba(imodels
Kmer
p1872
(dp1873
g3
(lp1874
I553
asg5
I930
sba(imodels
Kmer
p1875
(dp1876
g3
(lp1877
I603
asg5
I931
sba(imodels
Kmer
p1878
(dp1879
g3
(lp1880
I289
aI971
asg5
I934
sba(imodels
Kmer
p1881
(dp1882
g3
(lp1883
I780
asg5
I935
sba(imodels
Kmer
p1884
(dp1885
g3
(lp1886
I305
aI339
asg5
I937
sba(imodels
Kmer
p1887
(dp1888
g3
(lp1889
I430
asg5
I939
sba(imodels
Kmer
p1890
(dp1891
g3
(lp1892
I871
asg5
I940
sba(imodels
Kmer
p1893
(dp1894
g3
(lp1895
I1155
asg5
I941
sba(imodels
Kmer
p1896
(dp1897
g3
(lp1898
I534
asg5
I942
sba(imodels
Kmer
p1899
(dp1900
g3
(lp1901
I760
asg5
I943
sba(imodels
Kmer
p1902
(dp1903
g3
(lp1904
I881
asg5
I944
sba(imodels
Kmer
p1905
(dp1906
g3
(lp1907
I253
aI1087
asg5
I945
sba(imodels
Kmer
p1908
(dp1909
g3
(lp1910
I637
aI1137
asg5
I946
sba(imodels
Kmer
p1911
(dp1912
g3
(lp1913
I464
aI1104
asg5
I947
sba(imodels
Kmer
p1914
(dp1915
g3
(lp1916
I196
asg5
I948
sba(imodels
Kmer
p1917
(dp1918
g3
(lp1919
I417
aI966
asg5
I950
sba(imodels
Kmer
p1920
(dp1921
g3
(lp1922
I537
aI776
asg5
I951
sba(imodels
Kmer
p1923
(dp1924
g3
(lp1925
I906
asg5
I952
sba(imodels
Kmer
p1926
(dp1927
g3
(lp1928
I281
asg5
I953
sba(imodels
Kmer
p1929
(dp1930
g3
(lp1931
I188
aI1003
asg5
I955
sba(imodels
Kmer
p1932
(dp1933
g3
(lp1934
I1099
asg5
I956
sba(imodels
Kmer
p1935
(dp1936
g3
(lp1937
I190
aI890
aI1005
asg5
I957
sba(imodels
Kmer
p1938
(dp1939
g3
(lp1940
I568
asg5
I959
sba(imodels
Kmer
p1941
(dp1942
g3
(lp1943
I820
asg5
I960
sba(imodels
Kmer
p1944
(dp1945
g3
(lp1946
I233
asg5
I962
sba(imodels
Kmer
p1947
(dp1948
g3
(lp1949
I764
asg5
I963
sba(imodels
Kmer
p1950
(dp1951
g3
(lp1952
I985
asg5
I964
sba(imodels
Kmer
p1953
(dp1954
g3
(lp1955
I1038
asg5
I965
sba(imodels
Kmer
p1956
(dp1957
g3
(lp1958
I239
aI438
aI608
asg5
I966
sba(imodels
Kmer
p1959
(dp1960
g3
(lp1961
I301
aI613
asg5
I967
sba(imodels
Kmer
p1962
(dp1963
g3
(lp1964
I395
aI785
asg5
I968
sba(imodels
Kmer
p1965
(dp1966
g3
(lp1967
I1142
asg5
I971
sba(imodels
Kmer
p1968
(dp1969
g3
(lp1970
I27
aI73
aI78
asg5
I972
sba(imodels
Kmer
p1971
(dp1972
g3
(lp1973
I244
aI1101
asg5
I974
sba(imodels
Kmer
p1974
(dp1975
g3
(lp1976
I228
asg5
I976
sba(imodels
Kmer
p1977
(dp1978
g3
(lp1979
I315
aI1050
asg5
I977
sba(imodels
Kmer
p1980
(dp1981
g3
(lp1982
I791
asg5
I978
sba(imodels
Kmer
p1983
(dp1984
g3
(lp1985
I375
aI571
asg5
I979
sba(imodels
Kmer
p1986
(dp1987
g3
(lp1988
I960
asg5
I980
sba(imodels
Kmer
p1989
(dp1990
g3
(lp1991
I1007
asg5
I982
sba(imodels
Kmer
p1992
(dp1993
g3
(lp1994
I471
asg5
I983
sba(imodels
Kmer
p1995
(dp1996
g3
(lp1997
I679
asg5
I986
sba(imodels
Kmer
p1998
(dp1999
g3
(lp2000
I192
asg5
I987
sba(imodels
Kmer
p2001
(dp2002
g3
(lp2003
I323
aI665
asg5
I988
sba(imodels
Kmer
p2004
(dp2005
g3
(lp2006
I521
aI547
asg5
I989
sba(imodels
Kmer
p2007
(dp2008
g3
(lp2009
I892
asg5
I990
sba(imodels
Kmer
p2010
(dp2011
g3
(lp2012
I738
asg5
I993
sba(imodels
Kmer
p2013
(dp2014
g3
(lp2015
I755
asg5
I994
sba(imodels
Kmer
p2016
(dp2017
g3
(lp2018
I1063
asg5
I999
sba(imodels
Kmer
p2019
(dp2020
g3
(lp2021
I429
asg5
I1002
sba(imodels
Kmer
p2022
(dp2023
g3
(lp2024
I533
asg5
I1003
sba(imodels
Kmer
p2025
(dp2026
g3
(lp2027
I880
aI1136
asg5
I1004
sba(imodels
Kmer
p2028
(dp2029
g3
(lp2030
I965
asg5
I1005
sba(imodels
Kmer
p2031
(dp2032
g3
(lp2033
I905
aI1002
asg5
I1006
sba(imodels
Kmer
p2034
(dp2035
g3
(lp2036
I763
asg5
I1008
sba(imodels
Kmer
p2037
(dp2038
g3
(lp2039
I437
aI607
asg5
I1009
sba(imodels
Kmer
p2040
(dp2041
g3
(lp2042
I784
asg5
I1010
sba(imodels
Kmer
p2043
(dp2044
g3
(lp2045
I314
aI570
asg5
I1012
sba(imodels
Kmer
p2046
(dp2047
g3
(lp2048
I470
asg5
I1013
sba(imodels
Kmer
p2049
(dp2050
g3
(lp2051
I546
asg5
I1015
sba(imodels
Kmer
p2052
(dp2053
g3
(lp2054
I737
asg5
I1016
sba(imodels
Kmer
p2055
(dp2056
g3
(lp2057
I1062
asg5
I1017
sba(imodels
Kmer
p2058
(dp2059
g3
(lp2060
I879
aI904
asg5
I1019
sba(imodels
Kmer
p2061
(dp2062
g3
(lp2063
I436
asg5
I1020
sba(imodels
Kmer
p2064
(dp2065
g3
(lp2066
I878
asg5
I1022
sba.